target datalayout = "e-m:e-p270:32:32-p271:32:32-p272:64:64-i64:64-i128:128-f80:128-n8:16:32:64-S128"
target triple = "x86_64-pc-linux-gnu"

%struct.ZDICT_cover_params_t = type { i32, i32, i32, i32, double, i32, i32, %struct.ZDICT_params_t }
%struct.ZDICT_params_t = type { i32, i32, i32 }
%struct.COVER_best_s = type { i32, i32, i64, ptr, i64, %struct.ZDICT_cover_params_t, i64 }

; Function Attrs: nounwind uwtable
define dso_local void @COVER_best_wait(ptr noundef %0) #0 {
  %2 = alloca ptr, align 8
  store ptr %0, ptr %2, align 8, !tbaa !66
  %3 = load ptr, ptr %2, align 8, !tbaa !66
  %4 = icmp ne ptr %3, null
  br i1 %4, label %6, label %5

5:                                                ; preds = %1
  br label %14

6:                                                ; preds = %1
  br label %7

7:                                                ; preds = %12, %6
  %8 = load ptr, ptr %2, align 8, !tbaa !66
  %9 = getelementptr inbounds nuw %struct.COVER_best_s, ptr %8, i32 0, i32 2
  %10 = load i64, ptr %9, align 8, !tbaa !68
  %11 = icmp ne i64 %10, 0
  br i1 %11, label %12, label %13

12:                                               ; preds = %7
  br label %7, !llvm.loop !73

13:                                               ; preds = %7
  br label %14

14:                                               ; preds = %13, %5
  ret void
}