; Function Attrs: nofree norecurse nosync nounwind memory(argmem: read) uwtable
define dso_local void @COVER_best_wait(ptr noundef readonly captures(none) %0) local_unnamed_addr #0 {
  %.not = icmp eq ptr %0, null
  br i1 %.not, label %.loopexit, label %.preheader

.preheader:                                       ; preds = %1
  %2 = getelementptr inbounds nuw i8, ptr %0, i64 8
  %3 = load i64, ptr %2, align 8, !tbaa !62
  %.not2 = icmp eq i64 %3, 0
  br i1 %.not2, label %.loopexit, label %.preheader.split, !llvm.loop !63

.preheader.split:                                 ; preds = %.preheader, %.preheader.split
  br label %.preheader.split

.loopexit:                                        ; preds = %.preheader, %1
  ret void
}